target datalayout = "e-m:e-p270:32:32-p271:32:32-p272:64:64-i64:64-i128:128-f80:128-n8:16:32:64-S128"
target triple = "x86_64-pc-linux-gnu"

%struct.perfbuf = type { i32, %struct.ticks, %struct.ticks, ptr }
%struct.ticks = type { i64, i64, i64 }
%union.pthread_mutex_t = type { %struct.__pthread_mutex_s }
%struct.__pthread_mutex_s = type { i32, i32, i32, i32, i32, i16, i16, %struct.__pthread_internal_list }
%struct.__pthread_internal_list = type { ptr, ptr }

@counters = internal global %struct.perfbuf zeroinitializer, align 8
@.str = private unnamed_addr constant [16 x i8] c"/proc/self/stat\00", align 1
@.str.7 = private unnamed_addr constant [52 x i8] c"%*c %*d %*d %*d %*d %*d %*u %*u %*u %*u %*u %ld %ld\00", align 1
@lock = internal global %union.pthread_mutex_t zeroinitializer, align 8

; Function Attrs: nounwind uwtable
define internal i32 @read_ticks(ptr noundef %0, ptr noundef %1, ptr noundef %2) #0 {
  %4 = alloca ptr, align 8
  %5 = alloca ptr, align 8
  %6 = alloca ptr, align 8
  store ptr %0, ptr %4, align 8
  store ptr %1, ptr %5, align 8
  store ptr %2, ptr %6, align 8
  %7 = load ptr, ptr %4, align 8
  %8 = load ptr, ptr %5, align 8
  %9 = load ptr, ptr %6, align 8
  %10 = call i32 (ptr, ptr, ...) @read_statdata(ptr noundef %7, ptr noundef @.str.7, ptr noundef %8, ptr noundef %9)
  ret i32 %10
}

; Function Attrs: nounwind uwtable
define internal i32 @get_jvmticks(ptr noundef %0) #0 {
  %2 = alloca i32, align 4
  %3 = alloca ptr, align 8
  %4 = alloca i64, align 8
  %5 = alloca i64, align 8
  store ptr %0, ptr %3, align 8
  %6 = call i32 @read_ticks(ptr noundef @.str, ptr noundef %4, ptr noundef %5)
  %7 = icmp slt i32 %6, 0
  br i1 %7, label %8, label %9

8:                                                ; preds = %1
  store i32 -1, ptr %2, align 4
  br label %21

9:                                                ; preds = %1
  %10 = load ptr, ptr %3, align 8
  %11 = call i32 @get_totalticks(i32 noundef -1, ptr noundef %10)
  %12 = icmp slt i32 %11, 0
  br i1 %12, label %13, label %14

13:                                               ; preds = %9
  store i32 -1, ptr %2, align 4
  br label %21

14:                                               ; preds = %9
  %15 = load i64, ptr %4, align 8
  %16 = load ptr, ptr %3, align 8
  %17 = getelementptr inbounds %struct.ticks, ptr %16, i32 0, i32 0
  store i64 %15, ptr %17, align 8
  %18 = load i64, ptr %5, align 8
  %19 = load ptr, ptr %3, align 8
  %20 = getelementptr inbounds %struct.ticks, ptr %19, i32 0, i32 1
  store i64 %18, ptr %20, align 8
  store i32 0, ptr %2, align 4
  br label %21

21:                                               ; preds = %14, %13, %8
  %22 = load i32, ptr %2, align 4
  ret i32 %22
}

; Function Attrs: nounwind uwtable
define internal double @get_cpuload_internal(i32 noundef %0, ptr noundef %1, i32 noundef %2) #0 {
  %4 = alloca i32, align 4
  %5 = alloca ptr, align 8
  %6 = alloca i32, align 4
  %7 = alloca i64, align 8
  %8 = alloca i64, align 8
  %9 = alloca i64, align 8
  %10 = alloca ptr, align 8
  %11 = alloca %struct.ticks, align 8
  %12 = alloca double, align 8
  %13 = alloca i32, align 4
  store i32 %0, ptr %4, align 4
  store ptr %1, ptr %5, align 8
  store i32 %2, ptr %6, align 4
  store double -1.000000e+00, ptr %12, align 8
  store i32 0, ptr %13, align 4
  %14 = load ptr, ptr %5, align 8
  store double 0.000000e+00, ptr %14, align 8
  %15 = call i32 @pthread_mutex_lock(ptr noundef @lock) #7
  %16 = call i32 @perfInit()
  %17 = icmp eq i32 %16, 0
  br i1 %17, label %18, label %132

18:                                               ; preds = %3
  %19 = load i32, ptr %6, align 4
  %20 = icmp eq i32 %19, 0
  br i1 %20, label %21, label %22

21:                                               ; preds = %18
  store ptr getelementptr inbounds (%struct.perfbuf, ptr @counters, i32 0, i32 1), ptr %10, align 8
  br label %32

22:                                               ; preds = %18
  %23 = load i32, ptr %4, align 4
  %24 = icmp eq i32 %23, -1
  br i1 %24, label %25, label %26

25:                                               ; preds = %22
  store ptr getelementptr inbounds (%struct.perfbuf, ptr @counters, i32 0, i32 2), ptr %10, align 8
  br label %31

26:                                               ; preds = %22
  %27 = load ptr, ptr getelementptr inbounds (%struct.perfbuf, ptr @counters, i32 0, i32 3), align 8
  %28 = load i32, ptr %4, align 4
  %29 = sext i32 %28 to i64
  %30 = getelementptr inbounds %struct.ticks, ptr %27, i64 %29
  store ptr %30, ptr %10, align 8
  br label %31

31:                                               ; preds = %26, %25
  br label %32

32:                                               ; preds = %31, %21
  %33 = load ptr, ptr %10, align 8
  call void @llvm.memcpy.p0.p0.i64(ptr align 8 %11, ptr align 8 %33, i64 24, i1 false)
  %34 = load i32, ptr %6, align 4
  %35 = icmp eq i32 %34, 0
  br i1 %35, label %36, label %42

36:                                               ; preds = %32
  %37 = load ptr, ptr %10, align 8
  %38 = call i32 @get_jvmticks(ptr noundef %37)
  %39 = icmp ne i32 %38, 0
  br i1 %39, label %40, label %41

40:                                               ; preds = %36
  store i32 1, ptr %13, align 4
  br label %41

41:                                               ; preds = %40, %36
  br label %49

42:                                               ; preds = %32
  %43 = load i32, ptr %4, align 4
  %44 = load ptr, ptr %10, align 8
  %45 = call i32 @get_totalticks(i32 noundef %43, ptr noundef %44)
  %46 = icmp slt i32 %45, 0
  br i1 %46, label %47, label %48

47:                                               ; preds = %42
  store i32 1, ptr %13, align 4
  br label %48

48:                                               ; preds = %47, %42
  br label %49

49:                                               ; preds = %48, %41
  %50 = load i32, ptr %13, align 4
  %51 = icmp ne i32 %50, 0
  br i1 %51, label %131, label %52

52:                                               ; preds = %49
  %53 = load ptr, ptr %10, align 8
  %54 = getelementptr inbounds %struct.ticks, ptr %53, i32 0, i32 1
  %55 = load i64, ptr %54, align 8
  %56 = getelementptr inbounds %struct.ticks, ptr %11, i32 0, i32 1
  %57 = load i64, ptr %56, align 8
  %58 = sub i64 %55, %57
  store i64 %58, ptr %8, align 8
  %59 = load ptr, ptr %10, align 8
  %60 = getelementptr inbounds %struct.ticks, ptr %59, i32 0, i32 2
  %61 = load i64, ptr %60, align 8
  %62 = getelementptr inbounds %struct.ticks, ptr %11, i32 0, i32 2
  %63 = load i64, ptr %62, align 8
  %64 = sub i64 %61, %63
  store i64 %64, ptr %9, align 8
  %65 = load ptr, ptr %10, align 8
  %66 = getelementptr inbounds %struct.ticks, ptr %65, i32 0, i32 0
  %67 = load i64, ptr %66, align 8
  %68 = getelementptr inbounds %struct.ticks, ptr %11, i32 0, i32 0
  %69 = load i64, ptr %68, align 8
  %70 = sub i64 %67, %69
  store i64 %70, ptr %7, align 8
  %71 = load i64, ptr %9, align 8
  %72 = icmp eq i64 %71, 0
  br i1 %72, label %73, label %74

73:                                               ; preds = %52
  store double 0.000000e+00, ptr %12, align 8
  br label %130

74:                                               ; preds = %52
  %75 = load i64, ptr %9, align 8
  %76 = load i64, ptr %7, align 8
  %77 = load i64, ptr %8, align 8
  %78 = add i64 %76, %77
  %79 = icmp ult i64 %75, %78
  br i1 %79, label %80, label %84

80:                                               ; preds = %74
  %81 = load i64, ptr %7, align 8
  %82 = load i64, ptr %8, align 8
  %83 = add i64 %81, %82
  store i64 %83, ptr %9, align 8
  br label %84

84:                                               ; preds = %80, %74
  %85 = load i64, ptr %8, align 8
  %86 = uitofp i64 %85 to double
  %87 = load i64, ptr %9, align 8
  %88 = uitofp i64 %87 to double
  %89 = fdiv double %86, %88
  %90 = load ptr, ptr %5, align 8
  store double %89, ptr %90, align 8
  %91 = load ptr, ptr %5, align 8
  %92 = load double, ptr %91, align 8
  %93 = fcmp ogt double %92, 0.000000e+00
  br i1 %93, label %94, label %97

94:                                               ; preds = %84
  %95 = load ptr, ptr %5, align 8
  %96 = load double, ptr %95, align 8
  br label %98

97:                                               ; preds = %84
  br label %98

98:                                               ; preds = %97, %94
  %99 = phi double [ %96, %94 ], [ 0.000000e+00, %97 ]
  %100 = load ptr, ptr %5, align 8
  store double %99, ptr %100, align 8
  %101 = load ptr, ptr %5, align 8
  %102 = load double, ptr %101, align 8
  %103 = fcmp olt double %102, 1.000000e+00
  br i1 %103, label %104, label %107

104:                                              ; preds = %98
  %105 = load ptr, ptr %5, align 8
  %106 = load double, ptr %105, align 8
  br label %108

107:                                              ; preds = %98
  br label %108

108:                                              ; preds = %107, %104
  %109 = phi double [ %106, %104 ], [ 1.000000e+00, %107 ]
  %110 = load ptr, ptr %5, align 8
  store double %109, ptr %110, align 8
  %111 = load i64, ptr %7, align 8
  %112 = uitofp i64 %111 to double
  %113 = load i64, ptr %9, align 8
  %114 = uitofp i64 %113 to double
  %115 = fdiv double %112, %114
  store double %115, ptr %12, align 8
  %116 = load double, ptr %12, align 8
  %117 = fcmp ogt double %116, 0.000000e+00
  br i1 %117, label %118, label %120

118:                                              ; preds = %108
  %119 = load double, ptr %12, align 8
  br label %121

120:                                              ; preds = %108
  br label %121

121:                                              ; preds = %120, %118
  %122 = phi double [ %119, %118 ], [ 0.000000e+00, %120 ]
  store double %122, ptr %12, align 8
  %123 = load double, ptr %12, align 8
  %124 = fcmp olt double %123, 1.000000e+00
  br i1 %124, label %125, label %127

125:                                              ; preds = %121
  %126 = load double, ptr %12, align 8
  br label %128

127:                                              ; preds = %121
  br label %128

128:                                              ; preds = %127, %125
  %129 = phi double [ %126, %125 ], [ 1.000000e+00, %127 ]
  store double %129, ptr %12, align 8
  br label %130

130:                                              ; preds = %128, %73
  br label %131

131:                                              ; preds = %130, %49
  br label %132

132:                                              ; preds = %131, %3
  %133 = call i32 @pthread_mutex_unlock(ptr noundef @lock) #7
  %134 = load double, ptr %12, align 8
  ret double %134
}